target datalayout = "e-m:e-p270:32:32-p271:32:32-p272:64:64-i64:64-i128:128-f80:128-n8:16:32:64-S128"
target triple = "x86_64-pc-linux-gnu"

%"class.std::__cxx11::basic_string" = type { %"struct.std::__cxx11::basic_string<char>::_Alloc_hider", i64, %union.anon.53 }
%"struct.std::__cxx11::basic_string<char>::_Alloc_hider" = type { ptr }
%union.anon.53 = type { i64, [8 x i8] }
%class.ast_context_params = type { %class.context_params, ptr }
%class.context_params = type { i32, i32, %"class.std::__cxx11::basic_string", %"class.std::__cxx11::basic_string", i8, i8, i8, i8, i8, i8, i8, i8, i8, i8, i8, %"class.std::__cxx11::basic_string" }
%class.anon.175 = type { ptr }
%class.api_context_obj = type { %"class.user_propagator::context_obj", ptr }
%"class.user_propagator::context_obj" = type { ptr }

@_ZTV15api_context_obj = linkonce_odr hidden unnamed_addr constant { [4 x ptr] } { [4 x ptr] [ptr null, ptr @_ZTI15api_context_obj, ptr @_ZN15api_context_objD2Ev, ptr @_ZN15api_context_objD0Ev] }, comdat, align 8
@_ZTVN15user_propagator11context_objE = linkonce_odr hidden unnamed_addr constant { [4 x ptr] } { [4 x ptr] [ptr null, ptr @_ZTIN15user_propagator11context_objE, ptr @_ZN15user_propagator11context_objD2Ev, ptr @_ZN15user_propagator11context_objD0Ev] }, comdat, align 8

; Function Attrs: inlinehint mustprogress nounwind uwtable
define linkonce_odr hidden void @_ZN15user_propagator11context_objC2Ev(ptr noundef nonnull align 8 dereferenceable(8) %0) unnamed_addr #8 comdat align 2 {
  %2 = alloca ptr, align 8
  store ptr %0, ptr %2, align 8, !tbaa !1013
  %3 = load ptr, ptr %2, align 8
  store ptr getelementptr inbounds inrange(-16, 16) ({ [4 x ptr] }, ptr @_ZTVN15user_propagator11context_objE, i32 0, i32 0, i32 2), ptr %3, align 8, !tbaa !18
  ret void
}

; Function Attrs: mustprogress nounwind uwtable
define linkonce_odr hidden void @_ZN15api_context_objC2EPN3api7contextE(ptr noundef nonnull align 8 dereferenceable(16) %0, ptr noundef %1) unnamed_addr #7 comdat align 2 {
  %3 = alloca ptr, align 8
  %4 = alloca ptr, align 8
  store ptr %0, ptr %3, align 8, !tbaa !1018
  store ptr %1, ptr %4, align 8, !tbaa !101
  %5 = load ptr, ptr %3, align 8
  call void @_ZN15user_propagator11context_objC2Ev(ptr noundef nonnull align 8 dereferenceable(8) %5) #3
  store ptr getelementptr inbounds inrange(-16, 16) ({ [4 x ptr] }, ptr @_ZTV15api_context_obj, i32 0, i32 0, i32 2), ptr %5, align 8, !tbaa !18
  %6 = getelementptr inbounds nuw %class.api_context_obj, ptr %5, i32 0, i32 1
  %7 = load ptr, ptr %4, align 8, !tbaa !101
  store ptr %7, ptr %6, align 8, !tbaa !1020
  ret void
}

; Function Attrs: mustprogress nounwind uwtable
define linkonce_odr hidden void @_ZN18ast_context_params19set_foreign_managerEP11ast_manager(ptr noundef nonnull align 8 dereferenceable(128) %0, ptr noundef %1) #7 comdat align 2 {
  %3 = alloca ptr, align 8
  %4 = alloca ptr, align 8
  store ptr %0, ptr %3, align 8, !tbaa !1015
  store ptr %1, ptr %4, align 8, !tbaa !34
  %5 = load ptr, ptr %3, align 8
  %6 = load ptr, ptr %4, align 8, !tbaa !34
  %7 = getelementptr inbounds nuw %class.ast_context_params, ptr %5, i32 0, i32 1
  store ptr %6, ptr %7, align 8, !tbaa !1017
  ret void
}

; Function Attrs: inlinehint mustprogress uwtable
define linkonce_odr hidden void @_ZN18ast_context_paramsC2Ev(ptr noundef nonnull align 8 dereferenceable(128) %0) unnamed_addr #5 comdat align 2 {
  %2 = alloca ptr, align 8
  store ptr %0, ptr %2, align 8, !tbaa !1015
  %3 = load ptr, ptr %2, align 8
  call void @_ZN14context_paramsC2Ev(ptr noundef nonnull align 8 dereferenceable(120) %3)
  %4 = getelementptr inbounds nuw %class.ast_context_params, ptr %3, i32 0, i32 1
  store ptr null, ptr %4, align 8, !tbaa !1017
  ret void
}

; Function Attrs: inlinehint mustprogress uwtable
define internal noundef ptr @"_ZZ24Z3_solver_propagate_initENK3$_0clEPvR11ast_managerRPN15user_propagator11context_objE"(ptr noundef nonnull align 8 dereferenceable(8) %0, ptr noundef %1, ptr noundef nonnull align 8 dereferenceable(976) %2, ptr noundef nonnull align 8 dereferenceable(8) %3) #5 align 2 personality ptr @__gxx_personality_v0 {
  %5 = alloca ptr, align 8
  %6 = alloca ptr, align 8
  %7 = alloca ptr, align 8
  %8 = alloca ptr, align 8
  %9 = alloca %class.ast_context_params, align 8
  %10 = alloca ptr, align 8
  %11 = alloca i32, align 4
  %12 = alloca ptr, align 8
  store ptr %0, ptr %5, align 8, !tbaa !467
  store ptr %1, ptr %6, align 8, !tbaa !467
  store ptr %2, ptr %7, align 8, !tbaa !34
  store ptr %3, ptr %8, align 8, !tbaa !1010
  %13 = load ptr, ptr %5, align 8
  call void @llvm.lifetime.start.p0(i64 128, ptr %9) #3
  call void @_ZN18ast_context_paramsC2Ev(ptr noundef nonnull align 8 dereferenceable(128) %9)
  %14 = load ptr, ptr %7, align 8, !tbaa !34
  invoke void @_ZN18ast_context_params19set_foreign_managerEP11ast_manager(ptr noundef nonnull align 8 dereferenceable(128) %9, ptr noundef %14)
          to label %15 unwind label %30

15:                                               ; preds = %4
  call void @llvm.lifetime.start.p0(i64 8, ptr %12) #3
  %16 = invoke noalias noundef ptr @_ZN6memory8allocateEm(i64 noundef 3056)
          to label %17 unwind label %34

17:                                               ; preds = %15
  invoke void @_ZN3api7contextC1EP18ast_context_paramsb(ptr noundef nonnull align 8 dereferenceable(3056) %16, ptr noundef %9, i1 noundef zeroext false)
          to label %18 unwind label %34

18:                                               ; preds = %17
  store ptr %16, ptr %12, align 8, !tbaa !101
  %19 = invoke noalias noundef ptr @_ZN6memory8allocateEm(i64 noundef 16)
          to label %20 unwind label %34

20:                                               ; preds = %18
  %21 = load ptr, ptr %12, align 8, !tbaa !101
  invoke void @_ZN15api_context_objC2EPN3api7contextE(ptr noundef nonnull align 8 dereferenceable(16) %19, ptr noundef %21)
          to label %22 unwind label %34

22:                                               ; preds = %20
  %23 = load ptr, ptr %8, align 8, !tbaa !1010
  store ptr %19, ptr %23, align 8, !tbaa !1013
  %24 = getelementptr inbounds nuw %class.anon.175, ptr %13, i32 0, i32 0
  %25 = load ptr, ptr %24, align 8, !tbaa !477
  %26 = load ptr, ptr %6, align 8, !tbaa !467
  %27 = load ptr, ptr %12, align 8, !tbaa !101
  %28 = invoke noundef ptr %25(ptr noundef %26, ptr noundef %27)
          to label %29 unwind label %34

29:                                               ; preds = %22
  call void @llvm.lifetime.end.p0(i64 8, ptr %12) #3
  call void @_ZN14context_paramsD2Ev(ptr noundef nonnull align 8 dereferenceable(128) %9) #3
  call void @llvm.lifetime.end.p0(i64 128, ptr %9) #3
  ret ptr %28

30:                                               ; preds = %4
  %31 = landingpad { ptr, i32 }
          cleanup
  %32 = extractvalue { ptr, i32 } %31, 0
  store ptr %32, ptr %10, align 8
  %33 = extractvalue { ptr, i32 } %31, 1
  store i32 %33, ptr %11, align 4
  br label %38

34:                                               ; preds = %22, %20, %18, %17, %15
  %35 = landingpad { ptr, i32 }
          cleanup
  %36 = extractvalue { ptr, i32 } %35, 0
  store ptr %36, ptr %10, align 8
  %37 = extractvalue { ptr, i32 } %35, 1
  store i32 %37, ptr %11, align 4
  call void @llvm.lifetime.end.p0(i64 8, ptr %12) #3
  br label %38

38:                                               ; preds = %34, %30
  call void @_ZN14context_paramsD2Ev(ptr noundef nonnull align 8 dereferenceable(128) %9) #3
  call void @llvm.lifetime.end.p0(i64 128, ptr %9) #3
  br label %39

39:                                               ; preds = %38
  %40 = load ptr, ptr %10, align 8
  %41 = load i32, ptr %11, align 4
  %42 = insertvalue { ptr, i32 } poison, ptr %40, 0
  %43 = insertvalue { ptr, i32 } %42, i32 %41, 1
  resume { ptr, i32 } %43
}

; Function Attrs: mustprogress nounwind uwtable
define linkonce_odr hidden noundef ptr @_ZNKSt9_Any_data9_M_accessEv(ptr noundef nonnull align 8 dereferenceable(16) %0) #7 comdat align 2 {
  %2 = alloca ptr, align 8
  store ptr %0, ptr %2, align 8, !tbaa !994
  %3 = load ptr, ptr %2, align 8
  %4 = getelementptr inbounds [16 x i8], ptr %3, i64 0, i64 0
  ret ptr %4
}

; Function Attrs: mustprogress uwtable
define internal noundef ptr @"_ZSt13__invoke_implIPvRZ24Z3_solver_propagate_initE3$_0JS0_R11ast_managerRPN15user_propagator11context_objEEET_St14__invoke_otherOT0_DpOT1_"(ptr noundef nonnull align 8 dereferenceable(8) %0, ptr noundef nonnull align 8 dereferenceable(8) %1, ptr noundef nonnull align 8 dereferenceable(976) %2, ptr noundef nonnull align 8 dereferenceable(8) %3) #4 {
  %5 = alloca ptr, align 8
  %6 = alloca ptr, align 8
  %7 = alloca ptr, align 8
  %8 = alloca ptr, align 8
  store ptr %0, ptr %5, align 8, !tbaa !467
  store ptr %1, ptr %6, align 8, !tbaa !481
  store ptr %2, ptr %7, align 8, !tbaa !34
  store ptr %3, ptr %8, align 8, !tbaa !1010
  %9 = load ptr, ptr %5, align 8, !tbaa !467
  %10 = load ptr, ptr %6, align 8, !tbaa !481
  %11 = load ptr, ptr %10, align 8, !tbaa !467
  %12 = load ptr, ptr %7, align 8, !tbaa !34
  %13 = load ptr, ptr %8, align 8, !tbaa !1010
  %14 = call noundef ptr @"_ZZ24Z3_solver_propagate_initENK3$_0clEPvR11ast_managerRPN15user_propagator11context_objE"(ptr noundef nonnull align 8 dereferenceable(8) %9, ptr noundef %11, ptr noundef nonnull align 8 dereferenceable(976) %12, ptr noundef nonnull align 8 dereferenceable(8) %13)
  ret ptr %14
}

; Function Attrs: mustprogress nounwind uwtable
define internal noundef nonnull align 8 dereferenceable(8) ptr @"_ZNKSt9_Any_data9_M_accessIZ24Z3_solver_propagate_initE3$_0EERKT_v"(ptr noundef nonnull align 8 dereferenceable(16) %0) #7 align 2 {
  %2 = alloca ptr, align 8
  store ptr %0, ptr %2, align 8, !tbaa !994
  %3 = load ptr, ptr %2, align 8
  %4 = call noundef ptr @_ZNKSt9_Any_data9_M_accessEv(ptr noundef nonnull align 8 dereferenceable(16) %3) #3
  ret ptr %4
}

; Function Attrs: mustprogress uwtable
define internal noundef ptr @"_ZSt10__invoke_rIPvRZ24Z3_solver_propagate_initE3$_0JS0_R11ast_managerRPN15user_propagator11context_objEEENSt9enable_ifIX16is_invocable_r_vIT_T0_DpT1_EESA_E4typeEOSB_DpOSC_"(ptr noundef nonnull align 8 dereferenceable(8) %0, ptr noundef nonnull align 8 dereferenceable(8) %1, ptr noundef nonnull align 8 dereferenceable(976) %2, ptr noundef nonnull align 8 dereferenceable(8) %3) #4 {
  %5 = alloca ptr, align 8
  %6 = alloca ptr, align 8
  %7 = alloca ptr, align 8
  %8 = alloca ptr, align 8
  store ptr %0, ptr %5, align 8, !tbaa !467
  store ptr %1, ptr %6, align 8, !tbaa !481
  store ptr %2, ptr %7, align 8, !tbaa !34
  store ptr %3, ptr %8, align 8, !tbaa !1010
  %9 = load ptr, ptr %5, align 8, !tbaa !467
  %10 = load ptr, ptr %6, align 8, !tbaa !481
  %11 = load ptr, ptr %7, align 8, !tbaa !34
  %12 = load ptr, ptr %8, align 8, !tbaa !1010
  %13 = call noundef ptr @"_ZSt13__invoke_implIPvRZ24Z3_solver_propagate_initE3$_0JS0_R11ast_managerRPN15user_propagator11context_objEEET_St14__invoke_otherOT0_DpOT1_"(ptr noundef nonnull align 8 dereferenceable(8) %9, ptr noundef nonnull align 8 dereferenceable(8) %10, ptr noundef nonnull align 8 dereferenceable(976) %11, ptr noundef nonnull align 8 dereferenceable(8) %12)
  ret ptr %13
}

; Function Attrs: mustprogress nounwind uwtable
define internal noundef ptr @"_ZNSt14_Function_base13_Base_managerIZ24Z3_solver_propagate_initE3$_0E14_M_get_pointerERKSt9_Any_data"(ptr noundef nonnull align 8 dereferenceable(16) %0) #7 align 2 {
  %2 = alloca ptr, align 8
  %3 = alloca ptr, align 8
  store ptr %0, ptr %2, align 8, !tbaa !994
  call void @llvm.lifetime.start.p0(i64 8, ptr %3) #3
  %4 = load ptr, ptr %2, align 8, !tbaa !994
  %5 = call noundef nonnull align 8 dereferenceable(8) ptr @"_ZNKSt9_Any_data9_M_accessIZ24Z3_solver_propagate_initE3$_0EERKT_v"(ptr noundef nonnull align 8 dereferenceable(16) %4) #3
  store ptr %5, ptr %3, align 8, !tbaa !467
  %6 = load ptr, ptr %3, align 8, !tbaa !467
  call void @llvm.lifetime.end.p0(i64 8, ptr %3) #3
  ret ptr %6
}

; Function Attrs: mustprogress uwtable
define internal noundef ptr @"_ZNSt17_Function_handlerIFPvS0_R11ast_managerRPN15user_propagator11context_objEEZ24Z3_solver_propagate_initE3$_0E9_M_invokeERKSt9_Any_dataOS0_S2_S6_"(ptr noundef nonnull align 8 dereferenceable(16) %0, ptr noundef nonnull align 8 dereferenceable(8) %1, ptr noundef nonnull align 8 dereferenceable(976) %2, ptr noundef nonnull align 8 dereferenceable(8) %3) #4 align 2 {
  %5 = alloca ptr, align 8
  %6 = alloca ptr, align 8
  %7 = alloca ptr, align 8
  %8 = alloca ptr, align 8
  store ptr %0, ptr %5, align 8, !tbaa !994
  store ptr %1, ptr %6, align 8, !tbaa !481
  store ptr %2, ptr %7, align 8, !tbaa !34
  store ptr %3, ptr %8, align 8, !tbaa !1010
  %9 = load ptr, ptr %5, align 8, !tbaa !994
  %10 = call noundef ptr @"_ZNSt14_Function_base13_Base_managerIZ24Z3_solver_propagate_initE3$_0E14_M_get_pointerERKSt9_Any_data"(ptr noundef nonnull align 8 dereferenceable(16) %9) #3
  %11 = load ptr, ptr %6, align 8, !tbaa !481
  %12 = load ptr, ptr %7, align 8, !tbaa !34
  %13 = load ptr, ptr %8, align 8, !tbaa !1010
  %14 = call noundef ptr @"_ZSt10__invoke_rIPvRZ24Z3_solver_propagate_initE3$_0JS0_R11ast_managerRPN15user_propagator11context_objEEENSt9enable_ifIX16is_invocable_r_vIT_T0_DpT1_EESA_E4typeEOSB_DpOSC_"(ptr noundef nonnull align 8 dereferenceable(8) %10, ptr noundef nonnull align 8 dereferenceable(8) %11, ptr noundef nonnull align 8 dereferenceable(976) %12, ptr noundef nonnull align 8 dereferenceable(8) %13)
  ret ptr %14
}