; Function Attrs: mustprogress uwtable
define internal noundef ptr @"_ZNSt17_Function_handlerIFPvS0_R11ast_managerRPN15user_propagator11context_objEEZ24Z3_solver_propagate_initE3$_0E9_M_invokeERKSt9_Any_dataOS0_S2_S6_"(ptr noundef nonnull readonly align 8 captures(none) dereferenceable(16) %0, ptr noundef nonnull readonly align 8 captures(none) dereferenceable(8) %1, ptr noundef nonnull align 8 dereferenceable(976) %2, ptr noundef nonnull writeonly align 8 captures(none) dereferenceable(8) %3) #3 align 2 personality ptr @__gxx_personality_v0 {
  %5 = alloca %class.ast_context_params, align 8
  %.val = load ptr, ptr %1, align 8, !tbaa !440
  call void @llvm.lifetime.start.p0(i64 128, ptr nonnull %5) #25
  call void @_ZN14context_paramsC2Ev(ptr noundef nonnull align 8 dereferenceable(128) %5)
  %6 = getelementptr inbounds nuw i8, ptr %5, i64 120
  store ptr %2, ptr %6, align 8, !tbaa !630
  %7 = invoke noalias noundef ptr @_ZN6memory8allocateEm(i64 noundef 3056)
          to label %8 unwind label %43

8:                                                ; preds = %4
  invoke void @_ZN3api7contextC1EP18ast_context_paramsb(ptr noundef nonnull align 8 dereferenceable(3056) %7, ptr noundef nonnull %5, i1 noundef zeroext false)
          to label %9 unwind label %43

9:                                                ; preds = %8
  %10 = invoke noalias noundef ptr @_ZN6memory8allocateEm(i64 noundef 16)
          to label %11 unwind label %43

11:                                               ; preds = %9
  store ptr getelementptr inbounds nuw inrange(-16, 16) (i8, ptr @_ZTV15api_context_obj, i64 16), ptr %10, align 8, !tbaa !27
  %12 = getelementptr inbounds nuw i8, ptr %10, i64 8
  store ptr %7, ptr %12, align 8, !tbaa !631
  store ptr %10, ptr %3, align 8, !tbaa !634
  %13 = load ptr, ptr %0, align 8, !tbaa !636
  %14 = invoke noundef ptr %13(ptr noundef %.val, ptr noundef nonnull %7)
          to label %15 unwind label %43

15:                                               ; preds = %11
  %16 = getelementptr inbounds nuw i8, ptr %5, i64 88
  %17 = load ptr, ptr %16, align 8, !tbaa !42
  %18 = getelementptr inbounds nuw i8, ptr %5, i64 104
  %19 = icmp eq ptr %17, %18
  br i1 %19, label %_ZNKSt7__cxx1112basic_stringIcSt11char_traitsIcESaIcEE11_M_is_localEv.exit.thread.i.i.i.i.i.i, label %_ZNKSt7__cxx1112basic_stringIcSt11char_traitsIcESaIcEE11_M_is_localEv.exit.i.i.i.i.i.i

_ZNKSt7__cxx1112basic_stringIcSt11char_traitsIcESaIcEE11_M_is_localEv.exit.thread.i.i.i.i.i.i: ; preds = %15
  %20 = getelementptr inbounds nuw i8, ptr %5, i64 96
  %21 = load i64, ptr %20, align 8, !tbaa !44
  %22 = icmp ult i64 %21, 16
  call void @llvm.assume(i1 %22)
  br label %_ZNSt7__cxx1112basic_stringIcSt11char_traitsIcESaIcEED2Ev.exit.i.i.i.i

_ZNKSt7__cxx1112basic_stringIcSt11char_traitsIcESaIcEE11_M_is_localEv.exit.i.i.i.i.i.i: ; preds = %15
  %23 = load i64, ptr %18, align 8, !tbaa !45
  %24 = add i64 %23, 1
  call void @_ZdlPvm(ptr noundef %17, i64 noundef %24) #27
  br label %_ZNSt7__cxx1112basic_stringIcSt11char_traitsIcESaIcEED2Ev.exit.i.i.i.i

_ZNSt7__cxx1112basic_stringIcSt11char_traitsIcESaIcEED2Ev.exit.i.i.i.i: ; preds = %_ZNKSt7__cxx1112basic_stringIcSt11char_traitsIcESaIcEE11_M_is_localEv.exit.i.i.i.i.i.i, %_ZNKSt7__cxx1112basic_stringIcSt11char_traitsIcESaIcEE11_M_is_localEv.exit.thread.i.i.i.i.i.i
  %25 = getelementptr inbounds nuw i8, ptr %5, i64 40
  %26 = load ptr, ptr %25, align 8, !tbaa !42
  %27 = getelementptr inbounds nuw i8, ptr %5, i64 56
  %28 = icmp eq ptr %26, %27
  br i1 %28, label %_ZNKSt7__cxx1112basic_stringIcSt11char_traitsIcESaIcEE11_M_is_localEv.exit.thread.i.i2.i.i.i.i, label %_ZNKSt7__cxx1112basic_stringIcSt11char_traitsIcESaIcEE11_M_is_localEv.exit.i.i1.i.i.i.i

_ZNKSt7__cxx1112basic_stringIcSt11char_traitsIcESaIcEE11_M_is_localEv.exit.thread.i.i2.i.i.i.i: ; preds = %_ZNSt7__cxx1112basic_stringIcSt11char_traitsIcESaIcEED2Ev.exit.i.i.i.i
  %29 = getelementptr inbounds nuw i8, ptr %5, i64 48
  %30 = load i64, ptr %29, align 8, !tbaa !44
  %31 = icmp ult i64 %30, 16
  call void @llvm.assume(i1 %31)
  br label %_ZNSt7__cxx1112basic_stringIcSt11char_traitsIcESaIcEED2Ev.exit3.i.i.i.i

_ZNKSt7__cxx1112basic_stringIcSt11char_traitsIcESaIcEE11_M_is_localEv.exit.i.i1.i.i.i.i: ; preds = %_ZNSt7__cxx1112basic_stringIcSt11char_traitsIcESaIcEED2Ev.exit.i.i.i.i
  %32 = load i64, ptr %27, align 8, !tbaa !45
  %33 = add i64 %32, 1
  call void @_ZdlPvm(ptr noundef %26, i64 noundef %33) #27
  br label %_ZNSt7__cxx1112basic_stringIcSt11char_traitsIcESaIcEED2Ev.exit3.i.i.i.i

_ZNSt7__cxx1112basic_stringIcSt11char_traitsIcESaIcEED2Ev.exit3.i.i.i.i: ; preds = %_ZNKSt7__cxx1112basic_stringIcSt11char_traitsIcESaIcEE11_M_is_localEv.exit.i.i1.i.i.i.i, %_ZNKSt7__cxx1112basic_stringIcSt11char_traitsIcESaIcEE11_M_is_localEv.exit.thread.i.i2.i.i.i.i
  %34 = getelementptr inbounds nuw i8, ptr %5, i64 8
  %35 = load ptr, ptr %34, align 8, !tbaa !42
  %36 = getelementptr inbounds nuw i8, ptr %5, i64 24
  %37 = icmp eq ptr %35, %36
  br i1 %37, label %_ZNKSt7__cxx1112basic_stringIcSt11char_traitsIcESaIcEE11_M_is_localEv.exit.thread.i.i5.i.i.i.i, label %_ZNKSt7__cxx1112basic_stringIcSt11char_traitsIcESaIcEE11_M_is_localEv.exit.i.i4.i.i.i.i

_ZNKSt7__cxx1112basic_stringIcSt11char_traitsIcESaIcEE11_M_is_localEv.exit.thread.i.i5.i.i.i.i: ; preds = %_ZNSt7__cxx1112basic_stringIcSt11char_traitsIcESaIcEED2Ev.exit3.i.i.i.i
  %38 = getelementptr inbounds nuw i8, ptr %5, i64 16
  %39 = load i64, ptr %38, align 8, !tbaa !44
  %40 = icmp ult i64 %39, 16
  call void @llvm.assume(i1 %40)
  br label %"_ZSt10__invoke_rIPvRZ24Z3_solver_propagate_initE3$_0JS0_R11ast_managerRPN15user_propagator11context_objEEENSt9enable_ifIX16is_invocable_r_vIT_T0_DpT1_EESA_E4typeEOSB_DpOSC_.exit"

_ZNKSt7__cxx1112basic_stringIcSt11char_traitsIcESaIcEE11_M_is_localEv.exit.i.i4.i.i.i.i: ; preds = %_ZNSt7__cxx1112basic_stringIcSt11char_traitsIcESaIcEED2Ev.exit3.i.i.i.i
  %41 = load i64, ptr %36, align 8, !tbaa !45
  %42 = add i64 %41, 1
  call void @_ZdlPvm(ptr noundef %35, i64 noundef %42) #27
  br label %"_ZSt10__invoke_rIPvRZ24Z3_solver_propagate_initE3$_0JS0_R11ast_managerRPN15user_propagator11context_objEEENSt9enable_ifIX16is_invocable_r_vIT_T0_DpT1_EESA_E4typeEOSB_DpOSC_.exit"

43:                                               ; preds = %11, %9, %8, %4
  %44 = landingpad { ptr, i32 }
          cleanup
  call void @_ZN14context_paramsD2Ev(ptr noundef nonnull align 8 dereferenceable(128) %5) #25
  call void @llvm.lifetime.end.p0(i64 128, ptr nonnull %5) #25
  resume { ptr, i32 } %44

"_ZSt10__invoke_rIPvRZ24Z3_solver_propagate_initE3$_0JS0_R11ast_managerRPN15user_propagator11context_objEEENSt9enable_ifIX16is_invocable_r_vIT_T0_DpT1_EESA_E4typeEOSB_DpOSC_.exit": ; preds = %_ZNKSt7__cxx1112basic_stringIcSt11char_traitsIcESaIcEE11_M_is_localEv.exit.thread.i.i5.i.i.i.i, %_ZNKSt7__cxx1112basic_stringIcSt11char_traitsIcESaIcEE11_M_is_localEv.exit.i.i4.i.i.i.i
  call void @llvm.lifetime.end.p0(i64 128, ptr nonnull %5) #25
  ret ptr %14
}